; ModuleID = 'source-C-CXX/25/553.c'
source_filename = "source-C-CXX/25/553.c"
target datalayout = "e-m:e-p270:32:32-p271:32:32-p272:64:64-i64:64-f80:128-n8:16:32:64-S128"
target triple = "x86_64-pc-linux-gnu"

@.str = private unnamed_addr constant [4 x i8] c"%s \00", align 1

; Function Attrs: nounwind sspstrong uwtable
define dso_local i32 @main() local_unnamed_addr #0 {
  %1 = alloca [100 x i8], align 16
  %2 = alloca [100 x [100 x i8]], align 16
  %3 = getelementptr inbounds [100 x i8], [100 x i8]* %1, i64 0, i64 0
  call void @llvm.lifetime.start.p0i8(i64 100, i8* nonnull %3) #6
  %4 = getelementptr inbounds [100 x [100 x i8]], [100 x [100 x i8]]* %2, i64 0, i64 0, i64 0
  call void @llvm.lifetime.start.p0i8(i64 10000, i8* nonnull %4) #6
  %5 = call i32 (i8*, ...) bitcast (i32 (...)* @gets to i32 (i8*, ...)*)(i8* nonnull %3) #6
  %6 = call i64 @strlen(i8* noundef nonnull %3) #7
  %7 = icmp eq i64 %6, 0
  br i1 %7, label %8, label %10

8:                                                ; preds = %0
  %9 = getelementptr inbounds [100 x [100 x i8]], [100 x [100 x i8]]* %2, i64 0, i64 0, i64 0
  store i8 0, i8* %9, align 16, !tbaa !5
  br label %50

10:                                               ; preds = %0, %32
  %11 = phi i64 [ %33, %32 ], [ 0, %0 ]
  %12 = phi i32 [ %35, %32 ], [ 0, %0 ]
  %13 = phi i32 [ %34, %32 ], [ 0, %0 ]
  %14 = getelementptr inbounds [100 x i8], [100 x i8]* %1, i64 0, i64 %11
  %15 = load i8, i8* %14, align 1, !tbaa !5
  %16 = icmp eq i8 %15, 32
  %17 = sext i32 %13 to i64
  %18 = sext i32 %12 to i64
  %19 = getelementptr inbounds [100 x [100 x i8]], [100 x [100 x i8]]* %2, i64 0, i64 %17, i64 %18
  br i1 %16, label %23, label %20

20:                                               ; preds = %10
  store i8 %15, i8* %19, align 1, !tbaa !5
  %21 = add nsw i32 %12, 1
  %22 = add nuw nsw i64 %11, 1
  br label %32

23:                                               ; preds = %10
  store i8 0, i8* %19, align 1, !tbaa !5
  %24 = add nuw nsw i64 %11, 1
  %25 = getelementptr inbounds [100 x i8], [100 x i8]* %1, i64 0, i64 %24
  %26 = load i8, i8* %25, align 1, !tbaa !5
  %27 = icmp eq i8 %26, 32
  %28 = xor i1 %27, true
  %29 = zext i1 %28 to i32
  %30 = add nsw i32 %13, %29
  %31 = select i1 %27, i32 %12, i32 0
  br label %32

32:                                               ; preds = %23, %20
  %33 = phi i64 [ %24, %23 ], [ %22, %20 ]
  %34 = phi i32 [ %30, %23 ], [ %13, %20 ]
  %35 = phi i32 [ %31, %23 ], [ %21, %20 ]
  %36 = icmp eq i64 %33, %6
  br i1 %36, label %37, label %10, !llvm.loop !8

37:                                               ; preds = %32
  %38 = sext i32 %34 to i64
  %39 = sext i32 %35 to i64
  %40 = getelementptr inbounds [100 x [100 x i8]], [100 x [100 x i8]]* %2, i64 0, i64 %38, i64 %39
  store i8 0, i8* %40, align 1, !tbaa !5
  %41 = icmp sgt i32 %34, 0
  br i1 %41, label %42, label %50

42:                                               ; preds = %37
  %43 = zext i32 %34 to i64
  br label %44

44:                                               ; preds = %42, %44
  %45 = phi i64 [ 0, %42 ], [ %48, %44 ]
  %46 = getelementptr inbounds [100 x [100 x i8]], [100 x [100 x i8]]* %2, i64 0, i64 %45, i64 0
  %47 = call i32 (i8*, ...) @printf(i8* nonnull dereferenceable(1) getelementptr inbounds ([4 x i8], [4 x i8]* @.str, i64 0, i64 0), i8* nonnull %46)
  %48 = add nuw nsw i64 %45, 1
  %49 = icmp eq i64 %48, %43
  br i1 %49, label %50, label %44, !llvm.loop !10

50:                                               ; preds = %44, %8, %37
  %51 = phi i64 [ 0, %8 ], [ %38, %37 ], [ %38, %44 ]
  %52 = getelementptr inbounds [100 x [100 x i8]], [100 x [100 x i8]]* %2, i64 0, i64 %51, i64 0
  %53 = call i32 @puts(i8* nonnull %52)
  call void @llvm.lifetime.end.p0i8(i64 10000, i8* nonnull %4) #6
  call void @llvm.lifetime.end.p0i8(i64 100, i8* nonnull %3) #6
  ret i32 0
}

; Function Attrs: argmemonly mustprogress nofree nosync nounwind willreturn
declare void @llvm.lifetime.start.p0i8(i64 immarg, i8* nocapture) #1

declare i32 @gets(...) local_unnamed_addr #2

; Function Attrs: argmemonly mustprogress nofree nounwind readonly willreturn
declare i64 @strlen(i8* nocapture) local_unnamed_addr #3

; Function Attrs: nofree nounwind
declare noundef i32 @printf(i8* nocapture noundef readonly, ...) local_unnamed_addr #4

; Function Attrs: argmemonly mustprogress nofree nosync nounwind willreturn
declare void @llvm.lifetime.end.p0i8(i64 immarg, i8* nocapture) #1

; Function Attrs: nofree nounwind
declare noundef i32 @puts(i8* nocapture noundef readonly) local_unnamed_addr #5


!llvm.module.flags = !{!0, !1, !2, !3}
!llvm.ident = !{!4}

!0 = !{i32 1, !"wchar_size", i32 4}
!1 = !{i32 7, !"PIC Level", i32 2}
!2 = !{i32 7, !"PIE Level", i32 2}
!3 = !{i32 7, !"uwtable", i32 1}
!4 = !{!"clang version 13.0.0"}
!5 = !{!6, !6, i64 0}
!6 = !{!"omnipotent char", !7, i64 0}
!7 = !{!"Simple C/C++ TBAA"}
!8 = distinct !{!8, !9}
!9 = !{!"llvm.loop.mustprogress"}
!10 = distinct !{!10, !9}
